target datalayout = "e-m:e-p270:32:32-p271:32:32-p272:64:64-i64:64-i128:128-f80:128-n8:16:32:64-S128"
target triple = "x86_64-pc-linux-gnu"

%struct.JNINativeInterface_ = type { ptr, ptr, ptr, ptr, ptr, ptr, ptr, ptr, ptr, ptr, ptr, ptr, ptr, ptr, ptr, ptr, ptr, ptr, ptr, ptr, ptr, ptr, ptr, ptr, ptr, ptr, ptr, ptr, ptr, ptr, ptr, ptr, ptr, ptr, ptr, ptr, ptr, ptr, ptr, ptr, ptr, ptr, ptr, ptr, ptr, ptr, ptr, ptr, ptr, ptr, ptr, ptr, ptr, ptr, ptr, ptr, ptr, ptr, ptr, ptr, ptr, ptr, ptr, ptr, ptr, ptr, ptr, ptr, ptr, ptr, ptr, ptr, ptr, ptr, ptr, ptr, ptr, ptr, ptr, ptr, ptr, ptr, ptr, ptr, ptr, ptr, ptr, ptr, ptr, ptr, ptr, ptr, ptr, ptr, ptr, ptr, ptr, ptr, ptr, ptr, ptr, ptr, ptr, ptr, ptr, ptr, ptr, ptr, ptr, ptr, ptr, ptr, ptr, ptr, ptr, ptr, ptr, ptr, ptr, ptr, ptr, ptr, ptr, ptr, ptr, ptr, ptr, ptr, ptr, ptr, ptr, ptr, ptr, ptr, ptr, ptr, ptr, ptr, ptr, ptr, ptr, ptr, ptr, ptr, ptr, ptr, ptr, ptr, ptr, ptr, ptr, ptr, ptr, ptr, ptr, ptr, ptr, ptr, ptr, ptr, ptr, ptr, ptr, ptr, ptr, ptr, ptr, ptr, ptr, ptr, ptr, ptr, ptr, ptr, ptr, ptr, ptr, ptr, ptr, ptr, ptr, ptr, ptr, ptr, ptr, ptr, ptr, ptr, ptr, ptr, ptr, ptr, ptr, ptr, ptr, ptr, ptr, ptr, ptr, ptr, ptr, ptr, ptr, ptr, ptr, ptr, ptr, ptr, ptr, ptr, ptr, ptr, ptr, ptr, ptr, ptr, ptr, ptr, ptr, ptr, ptr, ptr, ptr, ptr, ptr, ptr, ptr, ptr, ptr, ptr, ptr, ptr, ptr, ptr, ptr }

@InputStream_readID = internal global ptr null, align 8
@InputStream_availableID = internal global ptr null, align 8
@.str = private unnamed_addr constant [15 x i8] c"sendHeaderInfo\00", align 1
@.str.1 = private unnamed_addr constant [9 x i8] c"(IIZZZ)Z\00", align 1
@sendHeaderInfoID = internal global ptr null, align 8
@.str.2 = private unnamed_addr constant [11 x i8] c"sendPixels\00", align 1
@.str.3 = private unnamed_addr constant [7 x i8] c"([BI)Z\00", align 1
@sendPixelsByteID = internal global ptr null, align 8
@.str.4 = private unnamed_addr constant [7 x i8] c"([II)Z\00", align 1
@sendPixelsIntID = internal global ptr null, align 8
@.str.5 = private unnamed_addr constant [5 x i8] c"read\00", align 1
@.str.6 = private unnamed_addr constant [8 x i8] c"([BII)I\00", align 1
@.str.7 = private unnamed_addr constant [10 x i8] c"available\00", align 1
@.str.8 = private unnamed_addr constant [4 x i8] c"()I\00", align 1

; Function Attrs: nounwind uwtable
define void @Java_sun_awt_image_JPEGImageDecoder_initIDs(ptr noundef %0, ptr noundef %1, ptr noundef %2) #0 {
  %4 = alloca ptr, align 8
  %5 = alloca ptr, align 8
  %6 = alloca ptr, align 8
  store ptr %0, ptr %4, align 8
  store ptr %1, ptr %5, align 8
  store ptr %2, ptr %6, align 8
  br label %7

7:                                                ; preds = %3
  %8 = load ptr, ptr %4, align 8
  %9 = load ptr, ptr %8, align 8
  %10 = getelementptr inbounds %struct.JNINativeInterface_, ptr %9, i32 0, i32 33
  %11 = load ptr, ptr %10, align 8
  %12 = load ptr, ptr %4, align 8
  %13 = load ptr, ptr %5, align 8
  %14 = call ptr %11(ptr noundef %12, ptr noundef %13, ptr noundef @.str, ptr noundef @.str.1)
  store ptr %14, ptr @sendHeaderInfoID, align 8
  %15 = icmp eq ptr %14, null
  br i1 %15, label %16, label %17

16:                                               ; preds = %7
  br label %66

17:                                               ; preds = %7
  br label %18

18:                                               ; preds = %17
  br label %19

19:                                               ; preds = %18
  %20 = load ptr, ptr %4, align 8
  %21 = load ptr, ptr %20, align 8
  %22 = getelementptr inbounds %struct.JNINativeInterface_, ptr %21, i32 0, i32 33
  %23 = load ptr, ptr %22, align 8
  %24 = load ptr, ptr %4, align 8
  %25 = load ptr, ptr %5, align 8
  %26 = call ptr %23(ptr noundef %24, ptr noundef %25, ptr noundef @.str.2, ptr noundef @.str.3)
  store ptr %26, ptr @sendPixelsByteID, align 8
  %27 = icmp eq ptr %26, null
  br i1 %27, label %28, label %29

28:                                               ; preds = %19
  br label %66

29:                                               ; preds = %19
  br label %30

30:                                               ; preds = %29
  br label %31

31:                                               ; preds = %30
  %32 = load ptr, ptr %4, align 8
  %33 = load ptr, ptr %32, align 8
  %34 = getelementptr inbounds %struct.JNINativeInterface_, ptr %33, i32 0, i32 33
  %35 = load ptr, ptr %34, align 8
  %36 = load ptr, ptr %4, align 8
  %37 = load ptr, ptr %5, align 8
  %38 = call ptr %35(ptr noundef %36, ptr noundef %37, ptr noundef @.str.2, ptr noundef @.str.4)
  store ptr %38, ptr @sendPixelsIntID, align 8
  %39 = icmp eq ptr %38, null
  br i1 %39, label %40, label %41

40:                                               ; preds = %31
  br label %66

41:                                               ; preds = %31
  br label %42

42:                                               ; preds = %41
  br label %43

43:                                               ; preds = %42
  %44 = load ptr, ptr %4, align 8
  %45 = load ptr, ptr %44, align 8
  %46 = getelementptr inbounds %struct.JNINativeInterface_, ptr %45, i32 0, i32 33
  %47 = load ptr, ptr %46, align 8
  %48 = load ptr, ptr %4, align 8
  %49 = load ptr, ptr %6, align 8
  %50 = call ptr %47(ptr noundef %48, ptr noundef %49, ptr noundef @.str.5, ptr noundef @.str.6)
  store ptr %50, ptr @InputStream_readID, align 8
  %51 = icmp eq ptr %50, null
  br i1 %51, label %52, label %53

52:                                               ; preds = %43
  br label %66

53:                                               ; preds = %43
  br label %54

54:                                               ; preds = %53
  br label %55

55:                                               ; preds = %54
  %56 = load ptr, ptr %4, align 8
  %57 = load ptr, ptr %56, align 8
  %58 = getelementptr inbounds %struct.JNINativeInterface_, ptr %57, i32 0, i32 33
  %59 = load ptr, ptr %58, align 8
  %60 = load ptr, ptr %4, align 8
  %61 = load ptr, ptr %6, align 8
  %62 = call ptr %59(ptr noundef %60, ptr noundef %61, ptr noundef @.str.7, ptr noundef @.str.8)
  store ptr %62, ptr @InputStream_availableID, align 8
  %63 = icmp eq ptr %62, null
  br i1 %63, label %64, label %65

64:                                               ; preds = %55
  br label %66

65:                                               ; preds = %55
  br label %66

66:                                               ; preds = %65, %64, %52, %40, %28, %16
  ret void
}