; Function Attrs: nounwind uwtable
define void @Java_sun_awt_image_JPEGImageDecoder_initIDs(ptr noundef %0, ptr noundef %1, ptr noundef %2) local_unnamed_addr #2 {
  %4 = load ptr, ptr %0, align 8
  %5 = getelementptr inbounds i8, ptr %4, i64 264
  %6 = load ptr, ptr %5, align 8
  %7 = tail call ptr %6(ptr noundef nonnull %0, ptr noundef %1, ptr noundef nonnull @.str, ptr noundef nonnull @.str.1) #12
  store ptr %7, ptr @sendHeaderInfoID, align 8
  %8 = icmp eq ptr %7, null
  br i1 %8, label %32, label %9

9:                                                ; preds = %3
  %10 = load ptr, ptr %0, align 8
  %11 = getelementptr inbounds i8, ptr %10, i64 264
  %12 = load ptr, ptr %11, align 8
  %13 = tail call ptr %12(ptr noundef nonnull %0, ptr noundef %1, ptr noundef nonnull @.str.2, ptr noundef nonnull @.str.3) #12
  store ptr %13, ptr @sendPixelsByteID, align 8
  %14 = icmp eq ptr %13, null
  br i1 %14, label %32, label %15

15:                                               ; preds = %9
  %16 = load ptr, ptr %0, align 8
  %17 = getelementptr inbounds i8, ptr %16, i64 264
  %18 = load ptr, ptr %17, align 8
  %19 = tail call ptr %18(ptr noundef nonnull %0, ptr noundef %1, ptr noundef nonnull @.str.2, ptr noundef nonnull @.str.4) #12
  store ptr %19, ptr @sendPixelsIntID, align 8
  %20 = icmp eq ptr %19, null
  br i1 %20, label %32, label %21

21:                                               ; preds = %15
  %22 = load ptr, ptr %0, align 8
  %23 = getelementptr inbounds i8, ptr %22, i64 264
  %24 = load ptr, ptr %23, align 8
  %25 = tail call ptr %24(ptr noundef nonnull %0, ptr noundef %2, ptr noundef nonnull @.str.5, ptr noundef nonnull @.str.6) #12
  store ptr %25, ptr @InputStream_readID, align 8
  %26 = icmp eq ptr %25, null
  br i1 %26, label %32, label %27

27:                                               ; preds = %21
  %28 = load ptr, ptr %0, align 8
  %29 = getelementptr inbounds i8, ptr %28, i64 264
  %30 = load ptr, ptr %29, align 8
  %31 = tail call ptr %30(ptr noundef nonnull %0, ptr noundef %2, ptr noundef nonnull @.str.7, ptr noundef nonnull @.str.8) #12
  store ptr %31, ptr @InputStream_availableID, align 8
  br label %32

32:                                               ; preds = %27, %21, %15, %9, %3
  ret void
}